target datalayout = "e-m:e-p270:32:32-p271:32:32-p272:64:64-i64:64-i128:128-f80:128-n8:16:32:64-S128"
target triple = "x86_64-pc-linux-gnu"

%struct.SwrContext = type { ptr, i32, ptr, i32, i32, i32, %struct.AVChannelLayout, %struct.AVChannelLayout, %struct.AVChannelLayout, i32, i32, i32, float, float, float, float, float, i32, ptr, i32, %struct.AVChannelLayout, %struct.AVChannelLayout, %struct.AVChannelLayout, i32, i32, %struct.DitherContext, i32, i32, i32, i32, double, i32, double, double, i32, float, float, float, float, float, i64, i32, i32, i32, %struct.AudioData, %struct.AudioData, %struct.AudioData, %struct.AudioData, %struct.AudioData, %struct.AudioData, %struct.AudioData, %struct.AudioData, i32, i32, i32, i32, i64, i64, i32, double, ptr, ptr, ptr, ptr, ptr, [64 x [64 x double]], [64 x [64 x float]], ptr, ptr, ptr, ptr, [64 x [64 x i32]], [64 x [65 x i8]], ptr, ptr, ptr, ptr, ptr }
%struct.AVChannelLayout = type { i32, i32, %union.anon, ptr }
%union.anon = type { i64 }
%struct.DitherContext = type { i32, i32, float, float, i32, float, float, i32, [20 x float], [64 x [40 x float]], %struct.AudioData, %struct.AudioData, i32 }
%struct.AudioData = type { [64 x ptr], ptr, i32, i32, i32, i32, i32 }

; Function Attrs: nounwind uwtable
define void @swri_noise_shaping_double(ptr noundef %0, ptr noundef %1, ptr noundef %2, ptr noundef %3, i32 noundef %4) #0 {
  %6 = alloca ptr, align 8
  %7 = alloca ptr, align 8
  %8 = alloca ptr, align 8
  %9 = alloca ptr, align 8
  %10 = alloca i32, align 4
  %11 = alloca i32, align 4
  %12 = alloca i32, align 4
  %13 = alloca i32, align 4
  %14 = alloca i32, align 4
  %15 = alloca i32, align 4
  %16 = alloca float, align 4
  %17 = alloca float, align 4
  %18 = alloca ptr, align 8
  %19 = alloca ptr, align 8
  %20 = alloca ptr, align 8
  %21 = alloca ptr, align 8
  %22 = alloca ptr, align 8
  %23 = alloca double, align 8
  %24 = alloca double, align 8
  store ptr %0, ptr %6, align 8, !tbaa !4
  store ptr %1, ptr %7, align 8, !tbaa !51
  store ptr %2, ptr %8, align 8, !tbaa !51
  store ptr %3, ptr %9, align 8, !tbaa !51
  store i32 %4, ptr %10, align 4, !tbaa !10
  call void @llvm.lifetime.start.p0(i64 4, ptr %11) #7
  %25 = load ptr, ptr %6, align 8, !tbaa !4
  %26 = getelementptr inbounds nuw %struct.SwrContext, ptr %25, i32 0, i32 25
  %27 = getelementptr inbounds nuw %struct.DitherContext, ptr %26, i32 0, i32 7
  %28 = load i32, ptr %27, align 4, !tbaa !38
  store i32 %28, ptr %11, align 4, !tbaa !10
  call void @llvm.lifetime.start.p0(i64 4, ptr %12) #7
  call void @llvm.lifetime.start.p0(i64 4, ptr %13) #7
  call void @llvm.lifetime.start.p0(i64 4, ptr %14) #7
  call void @llvm.lifetime.start.p0(i64 4, ptr %15) #7
  %29 = load ptr, ptr %6, align 8, !tbaa !4
  %30 = getelementptr inbounds nuw %struct.SwrContext, ptr %29, i32 0, i32 25
  %31 = getelementptr inbounds nuw %struct.DitherContext, ptr %30, i32 0, i32 4
  %32 = load i32, ptr %31, align 8, !tbaa !47
  store i32 %32, ptr %15, align 4, !tbaa !10
  call void @llvm.lifetime.start.p0(i64 4, ptr %16) #7
  %33 = load ptr, ptr %6, align 8, !tbaa !4
  %34 = getelementptr inbounds nuw %struct.SwrContext, ptr %33, i32 0, i32 25
  %35 = getelementptr inbounds nuw %struct.DitherContext, ptr %34, i32 0, i32 5
  %36 = load float, ptr %35, align 4, !tbaa !39
  store float %36, ptr %16, align 4, !tbaa !34
  call void @llvm.lifetime.start.p0(i64 4, ptr %17) #7
  %37 = load ptr, ptr %6, align 8, !tbaa !4
  %38 = getelementptr inbounds nuw %struct.SwrContext, ptr %37, i32 0, i32 25
  %39 = getelementptr inbounds nuw %struct.DitherContext, ptr %38, i32 0, i32 6
  %40 = load float, ptr %39, align 8, !tbaa !40
  store float %40, ptr %17, align 4, !tbaa !34
  store i32 0, ptr %14, align 4, !tbaa !10
  br label %41

41:                                               ; preds = %241, %5
  %42 = load i32, ptr %14, align 4, !tbaa !10
  %43 = load ptr, ptr %8, align 8, !tbaa !51
  %44 = getelementptr inbounds nuw %struct.AudioData, ptr %43, i32 0, i32 2
  %45 = load i32, ptr %44, align 8, !tbaa !53
  %46 = icmp slt i32 %42, %45
  br i1 %46, label %47, label %244

47:                                               ; preds = %41
  call void @llvm.lifetime.start.p0(i64 8, ptr %18) #7
  %48 = load ptr, ptr %9, align 8, !tbaa !51
  %49 = getelementptr inbounds nuw %struct.AudioData, ptr %48, i32 0, i32 0
  %50 = load i32, ptr %14, align 4, !tbaa !10
  %51 = sext i32 %50 to i64
  %52 = getelementptr inbounds [64 x ptr], ptr %49, i64 0, i64 %51
  %53 = load ptr, ptr %52, align 8, !tbaa !54
  %54 = load ptr, ptr %6, align 8, !tbaa !4
  %55 = getelementptr inbounds nuw %struct.SwrContext, ptr %54, i32 0, i32 25
  %56 = getelementptr inbounds nuw %struct.DitherContext, ptr %55, i32 0, i32 1
  %57 = load i32, ptr %56, align 4, !tbaa !55
  %58 = sext i32 %57 to i64
  %59 = getelementptr inbounds float, ptr %53, i64 %58
  store ptr %59, ptr %18, align 8, !tbaa !56
  call void @llvm.lifetime.start.p0(i64 8, ptr %19) #7
  %60 = load ptr, ptr %8, align 8, !tbaa !51
  %61 = getelementptr inbounds nuw %struct.AudioData, ptr %60, i32 0, i32 0
  %62 = load i32, ptr %14, align 4, !tbaa !10
  %63 = sext i32 %62 to i64
  %64 = getelementptr inbounds [64 x ptr], ptr %61, i64 0, i64 %63
  %65 = load ptr, ptr %64, align 8, !tbaa !54
  store ptr %65, ptr %19, align 8, !tbaa !27
  call void @llvm.lifetime.start.p0(i64 8, ptr %20) #7
  %66 = load ptr, ptr %7, align 8, !tbaa !51
  %67 = getelementptr inbounds nuw %struct.AudioData, ptr %66, i32 0, i32 0
  %68 = load i32, ptr %14, align 4, !tbaa !10
  %69 = sext i32 %68 to i64
  %70 = getelementptr inbounds [64 x ptr], ptr %67, i64 0, i64 %69
  %71 = load ptr, ptr %70, align 8, !tbaa !54
  store ptr %71, ptr %20, align 8, !tbaa !27
  call void @llvm.lifetime.start.p0(i64 8, ptr %21) #7
  %72 = load ptr, ptr %6, align 8, !tbaa !4
  %73 = getelementptr inbounds nuw %struct.SwrContext, ptr %72, i32 0, i32 25
  %74 = getelementptr inbounds nuw %struct.DitherContext, ptr %73, i32 0, i32 9
  %75 = load i32, ptr %14, align 4, !tbaa !10
  %76 = sext i32 %75 to i64
  %77 = getelementptr inbounds [64 x [40 x float]], ptr %74, i64 0, i64 %76
  %78 = getelementptr inbounds [40 x float], ptr %77, i64 0, i64 0
  store ptr %78, ptr %21, align 8, !tbaa !56
  call void @llvm.lifetime.start.p0(i64 8, ptr %22) #7
  %79 = load ptr, ptr %6, align 8, !tbaa !4
  %80 = getelementptr inbounds nuw %struct.SwrContext, ptr %79, i32 0, i32 25
  %81 = getelementptr inbounds nuw %struct.DitherContext, ptr %80, i32 0, i32 8
  %82 = getelementptr inbounds [20 x float], ptr %81, i64 0, i64 0
  store ptr %82, ptr %22, align 8, !tbaa !56
  %83 = load ptr, ptr %6, align 8, !tbaa !4
  %84 = getelementptr inbounds nuw %struct.SwrContext, ptr %83, i32 0, i32 25
  %85 = getelementptr inbounds nuw %struct.DitherContext, ptr %84, i32 0, i32 7
  %86 = load i32, ptr %85, align 4, !tbaa !38
  store i32 %86, ptr %11, align 4, !tbaa !10
  store i32 0, ptr %12, align 4, !tbaa !10
  br label %87

87:                                               ; preds = %237, %47
  %88 = load i32, ptr %12, align 4, !tbaa !10
  %89 = load i32, ptr %10, align 4, !tbaa !10
  %90 = icmp slt i32 %88, %89
  br i1 %90, label %91, label %240

91:                                               ; preds = %87
  call void @llvm.lifetime.start.p0(i64 8, ptr %23) #7
  call void @llvm.lifetime.start.p0(i64 8, ptr %24) #7
  %92 = load ptr, ptr %19, align 8, !tbaa !27
  %93 = load i32, ptr %12, align 4, !tbaa !10
  %94 = sext i32 %93 to i64
  %95 = getelementptr inbounds double, ptr %92, i64 %94
  %96 = load double, ptr %95, align 8, !tbaa !26
  %97 = load float, ptr %17, align 4, !tbaa !34
  %98 = fpext nsz float %97 to double
  %99 = fmul nsz double %96, %98
  store double %99, ptr %24, align 8, !tbaa !26
  store i32 0, ptr %13, align 4, !tbaa !10
  br label %100

100:                                              ; preds = %167, %91
  %101 = load i32, ptr %13, align 4, !tbaa !10
  %102 = load i32, ptr %15, align 4, !tbaa !10
  %103 = sub nsw i32 %102, 2
  %104 = icmp slt i32 %101, %103
  br i1 %104, label %105, label %170

105:                                              ; preds = %100
  %106 = load ptr, ptr %22, align 8, !tbaa !56
  %107 = load i32, ptr %13, align 4, !tbaa !10
  %108 = sext i32 %107 to i64
  %109 = getelementptr inbounds float, ptr %106, i64 %108
  %110 = load float, ptr %109, align 4, !tbaa !34
  %111 = load ptr, ptr %21, align 8, !tbaa !56
  %112 = load i32, ptr %11, align 4, !tbaa !10
  %113 = load i32, ptr %13, align 4, !tbaa !10
  %114 = add nsw i32 %112, %113
  %115 = sext i32 %114 to i64
  %116 = getelementptr inbounds float, ptr %111, i64 %115
  %117 = load float, ptr %116, align 4, !tbaa !34
  %118 = load ptr, ptr %22, align 8, !tbaa !56
  %119 = load i32, ptr %13, align 4, !tbaa !10
  %120 = add nsw i32 %119, 1
  %121 = sext i32 %120 to i64
  %122 = getelementptr inbounds float, ptr %118, i64 %121
  %123 = load float, ptr %122, align 4, !tbaa !34
  %124 = load ptr, ptr %21, align 8, !tbaa !56
  %125 = load i32, ptr %11, align 4, !tbaa !10
  %126 = load i32, ptr %13, align 4, !tbaa !10
  %127 = add nsw i32 %125, %126
  %128 = add nsw i32 %127, 1
  %129 = sext i32 %128 to i64
  %130 = getelementptr inbounds float, ptr %124, i64 %129
  %131 = load float, ptr %130, align 4, !tbaa !34
  %132 = fmul nsz float %123, %131
  %133 = call nsz float @llvm.fmuladd.f32(float %110, float %117, float %132)
  %134 = load ptr, ptr %22, align 8, !tbaa !56
  %135 = load i32, ptr %13, align 4, !tbaa !10
  %136 = add nsw i32 %135, 2
  %137 = sext i32 %136 to i64
  %138 = getelementptr inbounds float, ptr %134, i64 %137
  %139 = load float, ptr %138, align 4, !tbaa !34
  %140 = load ptr, ptr %21, align 8, !tbaa !56
  %141 = load i32, ptr %11, align 4, !tbaa !10
  %142 = load i32, ptr %13, align 4, !tbaa !10
  %143 = add nsw i32 %141, %142
  %144 = add nsw i32 %143, 2
  %145 = sext i32 %144 to i64
  %146 = getelementptr inbounds float, ptr %140, i64 %145
  %147 = load float, ptr %146, align 4, !tbaa !34
  %148 = call nsz float @llvm.fmuladd.f32(float %139, float %147, float %133)
  %149 = load ptr, ptr %22, align 8, !tbaa !56
  %150 = load i32, ptr %13, align 4, !tbaa !10
  %151 = add nsw i32 %150, 3
  %152 = sext i32 %151 to i64
  %153 = getelementptr inbounds float, ptr %149, i64 %152
  %154 = load float, ptr %153, align 4, !tbaa !34
  %155 = load ptr, ptr %21, align 8, !tbaa !56
  %156 = load i32, ptr %11, align 4, !tbaa !10
  %157 = load i32, ptr %13, align 4, !tbaa !10
  %158 = add nsw i32 %156, %157
  %159 = add nsw i32 %158, 3
  %160 = sext i32 %159 to i64
  %161 = getelementptr inbounds float, ptr %155, i64 %160
  %162 = load float, ptr %161, align 4, !tbaa !34
  %163 = call nsz float @llvm.fmuladd.f32(float %154, float %162, float %148)
  %164 = fpext nsz float %163 to double
  %165 = load double, ptr %24, align 8, !tbaa !26
  %166 = fsub nsz double %165, %164
  store double %166, ptr %24, align 8, !tbaa !26
  br label %167

167:                                              ; preds = %105
  %168 = load i32, ptr %13, align 4, !tbaa !10
  %169 = add nsw i32 %168, 4
  store i32 %169, ptr %13, align 4, !tbaa !10
  br label %100, !llvm.loop !70

170:                                              ; preds = %100
  %171 = load i32, ptr %13, align 4, !tbaa !10
  %172 = load i32, ptr %15, align 4, !tbaa !10
  %173 = icmp slt i32 %171, %172
  br i1 %173, label %174, label %191

174:                                              ; preds = %170
  %175 = load ptr, ptr %22, align 8, !tbaa !56
  %176 = load i32, ptr %13, align 4, !tbaa !10
  %177 = sext i32 %176 to i64
  %178 = getelementptr inbounds float, ptr %175, i64 %177
  %179 = load float, ptr %178, align 4, !tbaa !34
  %180 = load ptr, ptr %21, align 8, !tbaa !56
  %181 = load i32, ptr %11, align 4, !tbaa !10
  %182 = load i32, ptr %13, align 4, !tbaa !10
  %183 = add nsw i32 %181, %182
  %184 = sext i32 %183 to i64
  %185 = getelementptr inbounds float, ptr %180, i64 %184
  %186 = load float, ptr %185, align 4, !tbaa !34
  %187 = fmul nsz float %179, %186
  %188 = fpext nsz float %187 to double
  %189 = load double, ptr %24, align 8, !tbaa !26
  %190 = fsub nsz double %189, %188
  store double %190, ptr %24, align 8, !tbaa !26
  br label %191

191:                                              ; preds = %174, %170
  %192 = load i32, ptr %11, align 4, !tbaa !10
  %193 = icmp ne i32 %192, 0
  br i1 %193, label %194, label %197

194:                                              ; preds = %191
  %195 = load i32, ptr %11, align 4, !tbaa !10
  %196 = sub nsw i32 %195, 1
  br label %200

197:                                              ; preds = %191
  %198 = load i32, ptr %15, align 4, !tbaa !10
  %199 = sub nsw i32 %198, 1
  br label %200

200:                                              ; preds = %197, %194
  %201 = phi i32 [ %196, %194 ], [ %199, %197 ]
  store i32 %201, ptr %11, align 4, !tbaa !10
  %202 = load double, ptr %24, align 8, !tbaa !26
  %203 = load ptr, ptr %18, align 8, !tbaa !56
  %204 = load i32, ptr %12, align 4, !tbaa !10
  %205 = sext i32 %204 to i64
  %206 = getelementptr inbounds float, ptr %203, i64 %205
  %207 = load float, ptr %206, align 4, !tbaa !34
  %208 = fpext nsz float %207 to double
  %209 = fadd nsz double %202, %208
  %210 = call nsz double @llvm.rint.f64(double %209)
  store double %210, ptr %23, align 8, !tbaa !26
  %211 = load double, ptr %23, align 8, !tbaa !26
  %212 = load double, ptr %24, align 8, !tbaa !26
  %213 = fsub nsz double %211, %212
  %214 = fptrunc nsz double %213 to float
  %215 = load ptr, ptr %21, align 8, !tbaa !56
  %216 = load i32, ptr %11, align 4, !tbaa !10
  %217 = sext i32 %216 to i64
  %218 = getelementptr inbounds float, ptr %215, i64 %217
  store float %214, ptr %218, align 4, !tbaa !34
  %219 = load ptr, ptr %21, align 8, !tbaa !56
  %220 = load i32, ptr %11, align 4, !tbaa !10
  %221 = load i32, ptr %15, align 4, !tbaa !10
  %222 = add nsw i32 %220, %221
  %223 = sext i32 %222 to i64
  %224 = getelementptr inbounds float, ptr %219, i64 %223
  store float %214, ptr %224, align 4, !tbaa !34
  %225 = load float, ptr %16, align 4, !tbaa !34
  %226 = fpext nsz float %225 to double
  %227 = load double, ptr %23, align 8, !tbaa !26
  %228 = fmul nsz double %227, %226
  store double %228, ptr %23, align 8, !tbaa !26
  br label %229

229:                                              ; preds = %230, %200
  br i1 false, label %230, label %231

230:                                              ; preds = %229
  br label %229

231:                                              ; preds = %229
  %232 = load double, ptr %23, align 8, !tbaa !26
  %233 = load ptr, ptr %20, align 8, !tbaa !27
  %234 = load i32, ptr %12, align 4, !tbaa !10
  %235 = sext i32 %234 to i64
  %236 = getelementptr inbounds double, ptr %233, i64 %235
  store double %232, ptr %236, align 8, !tbaa !26
  call void @llvm.lifetime.end.p0(i64 8, ptr %24) #7
  call void @llvm.lifetime.end.p0(i64 8, ptr %23) #7
  br label %237

237:                                              ; preds = %231
  %238 = load i32, ptr %12, align 4, !tbaa !10
  %239 = add nsw i32 %238, 1
  store i32 %239, ptr %12, align 4, !tbaa !10
  br label %87, !llvm.loop !71

240:                                              ; preds = %87
  call void @llvm.lifetime.end.p0(i64 8, ptr %22) #7
  call void @llvm.lifetime.end.p0(i64 8, ptr %21) #7
  call void @llvm.lifetime.end.p0(i64 8, ptr %20) #7
  call void @llvm.lifetime.end.p0(i64 8, ptr %19) #7
  call void @llvm.lifetime.end.p0(i64 8, ptr %18) #7
  br label %241

241:                                              ; preds = %240
  %242 = load i32, ptr %14, align 4, !tbaa !10
  %243 = add nsw i32 %242, 1
  store i32 %243, ptr %14, align 4, !tbaa !10
  br label %41, !llvm.loop !72

244:                                              ; preds = %41
  %245 = load i32, ptr %11, align 4, !tbaa !10
  %246 = load ptr, ptr %6, align 8, !tbaa !4
  %247 = getelementptr inbounds nuw %struct.SwrContext, ptr %246, i32 0, i32 25
  %248 = getelementptr inbounds nuw %struct.DitherContext, ptr %247, i32 0, i32 7
  store i32 %245, ptr %248, align 4, !tbaa !38
  call void @llvm.lifetime.end.p0(i64 4, ptr %17) #7
  call void @llvm.lifetime.end.p0(i64 4, ptr %16) #7
  call void @llvm.lifetime.end.p0(i64 4, ptr %15) #7
  call void @llvm.lifetime.end.p0(i64 4, ptr %14) #7
  call void @llvm.lifetime.end.p0(i64 4, ptr %13) #7
  call void @llvm.lifetime.end.p0(i64 4, ptr %12) #7
  call void @llvm.lifetime.end.p0(i64 4, ptr %11) #7
  ret void
}