; Function Attrs: nofree norecurse nosync nounwind memory(readwrite, inaccessiblemem: none) uwtable
define void @swri_noise_shaping_double(ptr noundef captures(none) %0, ptr noundef readonly captures(none) %1, ptr noundef readonly captures(none) %2, ptr noundef readonly captures(none) %3, i32 noundef %4) local_unnamed_addr #6 {
  %6 = getelementptr inbounds nuw i8, ptr %0, i64 276
  %7 = load i32, ptr %6, align 4, !tbaa !33
  %8 = getelementptr inbounds nuw i8, ptr %0, i64 264
  %9 = load i32, ptr %8, align 8, !tbaa !42
  %10 = getelementptr inbounds nuw i8, ptr %2, i64 520
  %11 = load i32, ptr %10, align 8, !tbaa !47
  %12 = icmp sgt i32 %11, 0
  br i1 %12, label %.lr.ph, label %._crit_edge

.lr.ph:                                           ; preds = %5
  %13 = getelementptr inbounds nuw i8, ptr %0, i64 272
  %14 = load float, ptr %13, align 8, !tbaa !35
  %15 = getelementptr inbounds nuw i8, ptr %0, i64 268
  %16 = load float, ptr %15, align 4, !tbaa !34
  %17 = getelementptr inbounds nuw i8, ptr %0, i64 252
  %18 = load i32, ptr %17, align 4, !tbaa !48
  %19 = sext i32 %18 to i64
  %20 = getelementptr inbounds nuw i8, ptr %0, i64 360
  %21 = getelementptr inbounds nuw i8, ptr %0, i64 280
  %22 = icmp sgt i32 %4, 0
  %23 = fpext nsz float %14 to double
  %24 = add nsw i32 %9, -2
  %25 = fpext nsz float %16 to double
  %26 = icmp sgt i32 %9, 0
  br i1 %22, label %.lr.ph.split.us, label %._crit_edge

.lr.ph.split.us:                                  ; preds = %.lr.ph
  %27 = icmp sgt i32 %9, 2
  br i1 %27, label %.lr.ph86.us.us.preheader, label %.lr.ph86.us.preheader

.lr.ph86.us.preheader:                            ; preds = %.lr.ph.split.us
  %wide.trip.count109 = zext nneg i32 %11 to i64
  %wide.trip.count = zext nneg i32 %4 to i64
  br label %.lr.ph86.us

.lr.ph86.us.us.preheader:                         ; preds = %.lr.ph.split.us
  %28 = zext nneg i32 %24 to i64
  %wide.trip.count122 = zext nneg i32 %11 to i64
  %wide.trip.count117 = zext nneg i32 %4 to i64
  br label %.lr.ph86.us.us

.lr.ph86.us.us:                                   ; preds = %.lr.ph86.us.us.preheader, %._crit_edge87.split.us.us.us
  %indvars.iv119 = phi i64 [ 0, %.lr.ph86.us.us.preheader ], [ %indvars.iv.next120, %._crit_edge87.split.us.us.us ]
  %29 = getelementptr inbounds nuw [64 x ptr], ptr %3, i64 0, i64 %indvars.iv119
  %30 = load ptr, ptr %29, align 8, !tbaa !49
  %31 = getelementptr inbounds float, ptr %30, i64 %19
  %32 = getelementptr inbounds nuw [64 x ptr], ptr %2, i64 0, i64 %indvars.iv119
  %33 = load ptr, ptr %32, align 8, !tbaa !49
  %34 = getelementptr inbounds nuw [64 x ptr], ptr %1, i64 0, i64 %indvars.iv119
  %35 = load ptr, ptr %34, align 8, !tbaa !49
  %36 = getelementptr inbounds nuw [64 x [40 x float]], ptr %20, i64 0, i64 %indvars.iv119
  br label %.lr.ph.us.us.us

.lr.ph.us.us.us:                                  ; preds = %52, %.lr.ph86.us.us
  %indvars.iv114 = phi i64 [ %indvars.iv.next115, %52 ], [ 0, %.lr.ph86.us.us ]
  %.17684.us.us.us = phi i32 [ %53, %52 ], [ %7, %.lr.ph86.us.us ]
  %37 = getelementptr inbounds nuw double, ptr %33, i64 %indvars.iv114
  %38 = load double, ptr %37, align 8, !tbaa !23
  %39 = fmul nsz double %38, %23
  %40 = sext i32 %.17684.us.us.us to i64
  %invariant.gep = getelementptr float, ptr %36, i64 %40
  br label %68

41:                                               ; preds = %._crit_edge.us.us.us
  %42 = and i64 %indvars.iv.next112, 4294967292
  %43 = getelementptr inbounds nuw float, ptr %21, i64 %42
  %44 = load float, ptr %43, align 4, !tbaa !29
  %45 = add nsw i32 %.17684.us.us.us, %91
  %46 = sext i32 %45 to i64
  %47 = getelementptr inbounds float, ptr %36, i64 %46
  %48 = load float, ptr %47, align 4, !tbaa !29
  %49 = fmul nsz float %44, %48
  %50 = fpext nsz float %49 to double
  %51 = fsub nsz double %89, %50
  br label %52

52:                                               ; preds = %._crit_edge.us.us.us, %41
  %.1.us.us.us = phi nsz double [ %51, %41 ], [ %89, %._crit_edge.us.us.us ]
  %.not.us.us.us = icmp eq i32 %.17684.us.us.us, 0
  %.v.us.us.us = select i1 %.not.us.us.us, i32 %9, i32 %.17684.us.us.us
  %53 = add nsw i32 %.v.us.us.us, -1
  %54 = getelementptr inbounds nuw float, ptr %31, i64 %indvars.iv114
  %55 = load float, ptr %54, align 4, !tbaa !29
  %56 = fpext nsz float %55 to double
  %57 = fadd nsz double %.1.us.us.us, %56
  %58 = tail call nsz double @llvm.rint.f64(double %57)
  %59 = fsub nsz double %58, %.1.us.us.us
  %60 = fptrunc nsz double %59 to float
  %61 = sext i32 %53 to i64
  %62 = getelementptr inbounds float, ptr %36, i64 %61
  store float %60, ptr %62, align 4, !tbaa !29
  %63 = add nsw i32 %53, %9
  %64 = sext i32 %63 to i64
  %65 = getelementptr inbounds float, ptr %36, i64 %64
  store float %60, ptr %65, align 4, !tbaa !29
  %66 = fmul nsz double %58, %25
  %67 = getelementptr inbounds nuw double, ptr %35, i64 %indvars.iv114
  store double %66, ptr %67, align 8, !tbaa !23
  %indvars.iv.next115 = add nuw nsw i64 %indvars.iv114, 1
  %exitcond118.not = icmp eq i64 %indvars.iv.next115, %wide.trip.count117
  br i1 %exitcond118.not, label %._crit_edge87.split.us.us.us, label %.lr.ph.us.us.us, !llvm.loop !59

68:                                               ; preds = %68, %.lr.ph.us.us.us
  %indvars.iv111 = phi i64 [ %indvars.iv.next112, %68 ], [ 0, %.lr.ph.us.us.us ]
  %.081.us.us.us = phi double [ %89, %68 ], [ %39, %.lr.ph.us.us.us ]
  %69 = getelementptr inbounds nuw float, ptr %21, i64 %indvars.iv111
  %70 = load float, ptr %69, align 4, !tbaa !29
  %gep = getelementptr float, ptr %invariant.gep, i64 %indvars.iv111
  %71 = load float, ptr %gep, align 4, !tbaa !29
  %72 = getelementptr inbounds nuw i8, ptr %69, i64 4
  %73 = load float, ptr %72, align 4, !tbaa !29
  %74 = getelementptr i8, ptr %gep, i64 4
  %75 = load float, ptr %74, align 4, !tbaa !29
  %76 = fmul nsz float %73, %75
  %77 = tail call nsz float @llvm.fmuladd.f32(float %70, float %71, float %76)
  %78 = getelementptr inbounds nuw i8, ptr %69, i64 8
  %79 = load float, ptr %78, align 4, !tbaa !29
  %80 = getelementptr i8, ptr %gep, i64 8
  %81 = load float, ptr %80, align 4, !tbaa !29
  %82 = tail call nsz float @llvm.fmuladd.f32(float %79, float %81, float %77)
  %83 = getelementptr inbounds nuw i8, ptr %69, i64 12
  %84 = load float, ptr %83, align 4, !tbaa !29
  %85 = getelementptr i8, ptr %gep, i64 12
  %86 = load float, ptr %85, align 4, !tbaa !29
  %87 = tail call nsz float @llvm.fmuladd.f32(float %84, float %86, float %82)
  %88 = fpext nsz float %87 to double
  %89 = fsub nsz double %.081.us.us.us, %88
  %indvars.iv.next112 = add nuw nsw i64 %indvars.iv111, 4
  %90 = icmp samesign ult i64 %indvars.iv.next112, %28
  br i1 %90, label %68, label %._crit_edge.us.us.us, !llvm.loop !60

._crit_edge.us.us.us:                             ; preds = %68
  %91 = trunc nuw nsw i64 %indvars.iv.next112 to i32
  %92 = icmp sgt i32 %9, %91
  br i1 %92, label %41, label %52

._crit_edge87.split.us.us.us:                     ; preds = %52
  %indvars.iv.next120 = add nuw nsw i64 %indvars.iv119, 1
  %exitcond123.not = icmp eq i64 %indvars.iv.next120, %wide.trip.count122
  br i1 %exitcond123.not, label %._crit_edge, label %.lr.ph86.us.us, !llvm.loop !61

.lr.ph86.us:                                      ; preds = %.lr.ph86.us.preheader, %._crit_edge87.split.us95
  %indvars.iv106 = phi i64 [ 0, %.lr.ph86.us.preheader ], [ %indvars.iv.next107, %._crit_edge87.split.us95 ]
  %93 = getelementptr inbounds nuw [64 x ptr], ptr %3, i64 0, i64 %indvars.iv106
  %94 = load ptr, ptr %93, align 8, !tbaa !49
  %95 = getelementptr inbounds float, ptr %94, i64 %19
  %96 = getelementptr inbounds nuw [64 x ptr], ptr %2, i64 0, i64 %indvars.iv106
  %97 = load ptr, ptr %96, align 8, !tbaa !49
  %98 = getelementptr inbounds nuw [64 x ptr], ptr %1, i64 0, i64 %indvars.iv106
  %99 = load ptr, ptr %98, align 8, !tbaa !49
  %100 = getelementptr inbounds nuw [64 x [40 x float]], ptr %20, i64 0, i64 %indvars.iv106
  br label %101

101:                                              ; preds = %.lr.ph86.us, %113
  %indvars.iv = phi i64 [ 0, %.lr.ph86.us ], [ %indvars.iv.next, %113 ]
  %.17684.us90 = phi i32 [ %7, %.lr.ph86.us ], [ %114, %113 ]
  %102 = getelementptr inbounds nuw double, ptr %97, i64 %indvars.iv
  %103 = load double, ptr %102, align 8, !tbaa !23
  %104 = fmul nsz double %103, %23
  br i1 %26, label %105, label %113

105:                                              ; preds = %101
  %106 = load float, ptr %21, align 4, !tbaa !29
  %107 = sext i32 %.17684.us90 to i64
  %108 = getelementptr inbounds float, ptr %100, i64 %107
  %109 = load float, ptr %108, align 4, !tbaa !29
  %110 = fmul nsz float %106, %109
  %111 = fpext nsz float %110 to double
  %112 = fsub nsz double %104, %111
  br label %113

113:                                              ; preds = %105, %101
  %.1.us92 = phi nsz double [ %112, %105 ], [ %104, %101 ]
  %.not.us93 = icmp eq i32 %.17684.us90, 0
  %.v.us94 = select i1 %.not.us93, i32 %9, i32 %.17684.us90
  %114 = add nsw i32 %.v.us94, -1
  %115 = getelementptr inbounds nuw float, ptr %95, i64 %indvars.iv
  %116 = load float, ptr %115, align 4, !tbaa !29
  %117 = fpext nsz float %116 to double
  %118 = fadd nsz double %.1.us92, %117
  %119 = tail call nsz double @llvm.rint.f64(double %118)
  %120 = fsub nsz double %119, %.1.us92
  %121 = fptrunc nsz double %120 to float
  %122 = sext i32 %114 to i64
  %123 = getelementptr inbounds float, ptr %100, i64 %122
  store float %121, ptr %123, align 4, !tbaa !29
  %124 = add nsw i32 %114, %9
  %125 = sext i32 %124 to i64
  %126 = getelementptr inbounds float, ptr %100, i64 %125
  store float %121, ptr %126, align 4, !tbaa !29
  %127 = fmul nsz double %119, %25
  %128 = getelementptr inbounds nuw double, ptr %99, i64 %indvars.iv
  store double %127, ptr %128, align 8, !tbaa !23
  %indvars.iv.next = add nuw nsw i64 %indvars.iv, 1
  %exitcond.not = icmp eq i64 %indvars.iv.next, %wide.trip.count
  br i1 %exitcond.not, label %._crit_edge87.split.us95, label %101, !llvm.loop !59

._crit_edge87.split.us95:                         ; preds = %113
  %indvars.iv.next107 = add nuw nsw i64 %indvars.iv106, 1
  %exitcond110.not = icmp eq i64 %indvars.iv.next107, %wide.trip.count109
  br i1 %exitcond110.not, label %._crit_edge, label %.lr.ph86.us, !llvm.loop !61

._crit_edge:                                      ; preds = %._crit_edge87.split.us95, %._crit_edge87.split.us.us.us, %.lr.ph, %5
  %.075.lcssa = phi i32 [ %7, %5 ], [ %7, %.lr.ph ], [ %53, %._crit_edge87.split.us.us.us ], [ %114, %._crit_edge87.split.us95 ]
  store i32 %.075.lcssa, ptr %6, align 4, !tbaa !33
  ret void
}